; Function Attrs: nounwind uwtable
define dso_local i32 @select_g_select_nodeinfo_free(ptr noundef %0) local_unnamed_addr #0 {
  %2 = alloca ptr, align 8
  store ptr %0, ptr %2, align 8
  %.not = icmp eq ptr %0, null
  br i1 %.not, label %14, label %3

3:                                                ; preds = %1
  %4 = load ptr, ptr %0, align 8
  %.not3 = icmp eq ptr %4, null
  br i1 %.not3, label %13, label %5

5:                                                ; preds = %3
  %6 = load ptr, ptr @ops, align 8
  %7 = getelementptr inbounds nuw i8, ptr %0, i64 8
  %8 = load i32, ptr %7, align 8
  %9 = zext i32 %8 to i64
  %10 = getelementptr inbounds nuw %struct.slurm_select_ops_t, ptr %6, i64 %9, i32 19
  %11 = load ptr, ptr %10, align 8
  %12 = tail call i32 %11(ptr noundef nonnull %4) #15
  br label %13

13:                                               ; preds = %5, %3
  %.1 = phi i32 [ %12, %5 ], [ 0, %3 ]
  call void @slurm_xfree(ptr noundef nonnull %2) #15
  br label %14

14:                                               ; preds = %13, %1
  %.0 = phi i32 [ %.1, %13 ], [ 0, %1 ]
  ret i32 %.0
}